c__builtin__
set
p0
((lp1
I-6782082994988208509
aI-3015294216655365497
aI-4930017695639449591
aI116897553963808515
aI4202699533018606489
aI-3016619882805730017
aI-7995416161044243164
aI-4318593951266932538
aI-3561984862729219287
aI-2878709065590341326
aI-1356976451773434956
aI-7352162700437463369
aI5316468993519819073
aI-5710157137140232506
aI-3675076323091568569
aI2750405722600132556
aI8976455946079160759
aI-5029759026902897076
aI-6056510195285372850
aI6609841883803274194
aI-8478913398313517869
aI-5718109460267656983
aI7920470242647675248
aI4571605381122422649
atp2
Rp3
.